target datalayout = "e-m:e-p270:32:32-p271:32:32-p272:64:64-i64:64-i128:128-f80:128-n8:16:32:64-S128"
target triple = "x86_64-pc-linux-gnu"

%"class.pxrInternal_v0_24__pxrReserved__::GfMatrix2d" = type { %"class.pxrInternal_v0_24__pxrReserved__::GfMatrixData" }
%"class.pxrInternal_v0_24__pxrReserved__::GfMatrixData" = type { [4 x double] }

; Function Attrs: mustprogress nounwind uwtable
define linkonce_odr noundef ptr @_ZN32pxrInternal_v0_24__pxrReserved__12GfMatrixDataIdLi2ELi2EEixEi(ptr noundef nonnull align 8 dereferenceable(32) %0, i32 noundef %1) #2 comdat align 2 {
  %3 = alloca ptr, align 8
  %4 = alloca i32, align 4
  store ptr %0, ptr %3, align 8
  store i32 %1, ptr %4, align 4
  %5 = load ptr, ptr %3, align 8
  %6 = getelementptr inbounds nuw %"class.pxrInternal_v0_24__pxrReserved__::GfMatrixData", ptr %5, i32 0, i32 0
  %7 = getelementptr inbounds [4 x double], ptr %6, i64 0, i64 0
  %8 = load i32, ptr %4, align 4
  %9 = mul nsw i32 %8, 2
  %10 = sext i32 %9 to i64
  %11 = getelementptr inbounds double, ptr %7, i64 %10
  ret ptr %11
}

; Function Attrs: mustprogress uwtable
define linkonce_odr noundef nonnull align 8 dereferenceable(32) ptr @_ZN32pxrInternal_v0_24__pxrReserved__10GfMatrix2d3SetEdddd(ptr noundef nonnull align 8 dereferenceable(32) %0, double noundef %1, double noundef %2, double noundef %3, double noundef %4) #0 comdat align 2 {
  %6 = alloca ptr, align 8
  %7 = alloca double, align 8
  %8 = alloca double, align 8
  %9 = alloca double, align 8
  %10 = alloca double, align 8
  store ptr %0, ptr %6, align 8
  store double %1, ptr %7, align 8
  store double %2, ptr %8, align 8
  store double %3, ptr %9, align 8
  store double %4, ptr %10, align 8
  %11 = load ptr, ptr %6, align 8
  %12 = load double, ptr %7, align 8
  %13 = getelementptr inbounds nuw %"class.pxrInternal_v0_24__pxrReserved__::GfMatrix2d", ptr %11, i32 0, i32 0
  %14 = call noundef ptr @_ZN32pxrInternal_v0_24__pxrReserved__12GfMatrixDataIdLi2ELi2EEixEi(ptr noundef nonnull align 8 dereferenceable(32) %13, i32 noundef 0)
  %15 = getelementptr inbounds double, ptr %14, i64 0
  store double %12, ptr %15, align 8
  %16 = load double, ptr %8, align 8
  %17 = getelementptr inbounds nuw %"class.pxrInternal_v0_24__pxrReserved__::GfMatrix2d", ptr %11, i32 0, i32 0
  %18 = call noundef ptr @_ZN32pxrInternal_v0_24__pxrReserved__12GfMatrixDataIdLi2ELi2EEixEi(ptr noundef nonnull align 8 dereferenceable(32) %17, i32 noundef 0)
  %19 = getelementptr inbounds double, ptr %18, i64 1
  store double %16, ptr %19, align 8
  %20 = load double, ptr %9, align 8
  %21 = getelementptr inbounds nuw %"class.pxrInternal_v0_24__pxrReserved__::GfMatrix2d", ptr %11, i32 0, i32 0
  %22 = call noundef ptr @_ZN32pxrInternal_v0_24__pxrReserved__12GfMatrixDataIdLi2ELi2EEixEi(ptr noundef nonnull align 8 dereferenceable(32) %21, i32 noundef 1)
  %23 = getelementptr inbounds double, ptr %22, i64 0
  store double %20, ptr %23, align 8
  %24 = load double, ptr %10, align 8
  %25 = getelementptr inbounds nuw %"class.pxrInternal_v0_24__pxrReserved__::GfMatrix2d", ptr %11, i32 0, i32 0
  %26 = call noundef ptr @_ZN32pxrInternal_v0_24__pxrReserved__12GfMatrixDataIdLi2ELi2EEixEi(ptr noundef nonnull align 8 dereferenceable(32) %25, i32 noundef 1)
  %27 = getelementptr inbounds double, ptr %26, i64 1
  store double %24, ptr %27, align 8
  ret ptr %11
}

; Function Attrs: mustprogress uwtable
define linkonce_odr void @_ZN32pxrInternal_v0_24__pxrReserved__10GfMatrix2dC2Edddd(ptr noundef nonnull align 8 dereferenceable(32) %0, double noundef %1, double noundef %2, double noundef %3, double noundef %4) unnamed_addr #0 comdat align 2 {
  %6 = alloca ptr, align 8
  %7 = alloca double, align 8
  %8 = alloca double, align 8
  %9 = alloca double, align 8
  %10 = alloca double, align 8
  store ptr %0, ptr %6, align 8
  store double %1, ptr %7, align 8
  store double %2, ptr %8, align 8
  store double %3, ptr %9, align 8
  store double %4, ptr %10, align 8
  %11 = load ptr, ptr %6, align 8
  %12 = load double, ptr %7, align 8
  %13 = load double, ptr %8, align 8
  %14 = load double, ptr %9, align 8
  %15 = load double, ptr %10, align 8
  %16 = call noundef nonnull align 8 dereferenceable(32) ptr @_ZN32pxrInternal_v0_24__pxrReserved__10GfMatrix2d3SetEdddd(ptr noundef nonnull align 8 dereferenceable(32) %11, double noundef %12, double noundef %13, double noundef %14, double noundef %15)
  ret void
}

; Function Attrs: mustprogress nounwind uwtable
define linkonce_odr noundef ptr @_ZNK32pxrInternal_v0_24__pxrReserved__12GfMatrixDataIdLi2ELi2EEixEi(ptr noundef nonnull align 8 dereferenceable(32) %0, i32 noundef %1) #2 comdat align 2 {
  %3 = alloca ptr, align 8
  %4 = alloca i32, align 4
  store ptr %0, ptr %3, align 8
  store i32 %1, ptr %4, align 4
  %5 = load ptr, ptr %3, align 8
  %6 = getelementptr inbounds nuw %"class.pxrInternal_v0_24__pxrReserved__::GfMatrixData", ptr %5, i32 0, i32 0
  %7 = getelementptr inbounds [4 x double], ptr %6, i64 0, i64 0
  %8 = load i32, ptr %4, align 4
  %9 = mul nsw i32 %8, 2
  %10 = sext i32 %9 to i64
  %11 = getelementptr inbounds double, ptr %7, i64 %10
  ret ptr %11
}

; Function Attrs: mustprogress uwtable
define void @_ZN32pxrInternal_v0_24__pxrReserved__ngERKNS_10GfMatrix2dE(ptr dead_on_unwind noalias writable sret(%"class.pxrInternal_v0_24__pxrReserved__::GfMatrix2d") align 8 %0, ptr noundef nonnull align 8 dereferenceable(32) %1) #0 {
  %3 = alloca ptr, align 8
  store ptr %1, ptr %3, align 8
  %4 = load ptr, ptr %3, align 8
  %5 = getelementptr inbounds nuw %"class.pxrInternal_v0_24__pxrReserved__::GfMatrix2d", ptr %4, i32 0, i32 0
  %6 = call noundef ptr @_ZNK32pxrInternal_v0_24__pxrReserved__12GfMatrixDataIdLi2ELi2EEixEi(ptr noundef nonnull align 8 dereferenceable(32) %5, i32 noundef 0)
  %7 = getelementptr inbounds double, ptr %6, i64 0
  %8 = load double, ptr %7, align 8
  %9 = fneg double %8
  %10 = load ptr, ptr %3, align 8
  %11 = getelementptr inbounds nuw %"class.pxrInternal_v0_24__pxrReserved__::GfMatrix2d", ptr %10, i32 0, i32 0
  %12 = call noundef ptr @_ZNK32pxrInternal_v0_24__pxrReserved__12GfMatrixDataIdLi2ELi2EEixEi(ptr noundef nonnull align 8 dereferenceable(32) %11, i32 noundef 0)
  %13 = getelementptr inbounds double, ptr %12, i64 1
  %14 = load double, ptr %13, align 8
  %15 = fneg double %14
  %16 = load ptr, ptr %3, align 8
  %17 = getelementptr inbounds nuw %"class.pxrInternal_v0_24__pxrReserved__::GfMatrix2d", ptr %16, i32 0, i32 0
  %18 = call noundef ptr @_ZNK32pxrInternal_v0_24__pxrReserved__12GfMatrixDataIdLi2ELi2EEixEi(ptr noundef nonnull align 8 dereferenceable(32) %17, i32 noundef 1)
  %19 = getelementptr inbounds double, ptr %18, i64 0
  %20 = load double, ptr %19, align 8
  %21 = fneg double %20
  %22 = load ptr, ptr %3, align 8
  %23 = getelementptr inbounds nuw %"class.pxrInternal_v0_24__pxrReserved__::GfMatrix2d", ptr %22, i32 0, i32 0
  %24 = call noundef ptr @_ZNK32pxrInternal_v0_24__pxrReserved__12GfMatrixDataIdLi2ELi2EEixEi(ptr noundef nonnull align 8 dereferenceable(32) %23, i32 noundef 1)
  %25 = getelementptr inbounds double, ptr %24, i64 1
  %26 = load double, ptr %25, align 8
  %27 = fneg double %26
  call void @_ZN32pxrInternal_v0_24__pxrReserved__10GfMatrix2dC2Edddd(ptr noundef nonnull align 8 dereferenceable(32) %0, double noundef %9, double noundef %15, double noundef %21, double noundef %27)
  ret void
}