; Function Attrs: mustprogress nofree norecurse nosync nounwind willreturn memory(argmem: readwrite) uwtable
define void @_ZN32pxrInternal_v0_24__pxrReserved__ngERKNS_10GfMatrix2dE(ptr dead_on_unwind noalias writable writeonly sret(%"class.pxrInternal_v0_24__pxrReserved__::GfMatrix2d") align 8 captures(none) initializes((0, 32)) %0, ptr noundef nonnull readonly align 8 captures(none) dereferenceable(32) %1) local_unnamed_addr #2 {
  %3 = load double, ptr %1, align 8
  %4 = fneg double %3
  %5 = getelementptr inbounds nuw i8, ptr %1, i64 8
  %6 = load double, ptr %5, align 8
  %7 = fneg double %6
  %8 = getelementptr inbounds nuw i8, ptr %1, i64 16
  %9 = load double, ptr %8, align 8
  %10 = fneg double %9
  %11 = getelementptr inbounds nuw i8, ptr %1, i64 24
  %12 = load double, ptr %11, align 8
  %13 = fneg double %12
  store double %4, ptr %0, align 8
  %14 = getelementptr inbounds nuw i8, ptr %0, i64 8
  store double %7, ptr %14, align 8
  %15 = getelementptr inbounds nuw i8, ptr %0, i64 16
  store double %10, ptr %15, align 8
  %16 = getelementptr inbounds nuw i8, ptr %0, i64 24
  store double %13, ptr %16, align 8
  ret void
}